target datalayout = "e-m:e-p270:32:32-p271:32:32-p272:64:64-i64:64-i128:128-f80:128-n8:16:32:64-S128"
target triple = "x86_64-unknown-linux-gnu"

%"struct.node::crypto::AESCipherConfig" = type { %"class.node::MemoryRetainer", i32, i32, ptr, i64, %"class.node::crypto::ByteSource", %"class.node::crypto::ByteSource", %"class.node::crypto::ByteSource" }
%"class.node::MemoryRetainer" = type { ptr }
%"class.node::crypto::ByteSource" = type { ptr, ptr, i64 }

; Function Attrs: mustprogress nounwind uwtable
define linkonce_odr dso_local void @_ZN4node14MemoryRetainerC2Ev(ptr noundef nonnull align 8 dereferenceable(8) %this) unnamed_addr #4 comdat align 2 {
entry:
  %this.addr = alloca ptr, align 8
  store ptr %this, ptr %this.addr, align 8
  %this1 = load ptr, ptr %this.addr, align 8
  store ptr getelementptr inbounds ({ [10 x ptr] }, ptr @_ZTVN4node14MemoryRetainerE, i32 0, i32 0, i32 2), ptr %this1, align 8
  ret void
}

; Function Attrs: mustprogress nounwind uwtable
define dso_local void @_ZN4node6crypto15AESCipherConfigC2EOS1_(ptr noundef nonnull align 8 dereferenceable(104) %this, ptr noundef nonnull align 8 dereferenceable(104) %other) unnamed_addr #4 align 2 {
entry:
  %this.addr = alloca ptr, align 8
  %other.addr = alloca ptr, align 8
  store ptr %this, ptr %this.addr, align 8
  store ptr %other, ptr %other.addr, align 8
  %this1 = load ptr, ptr %this.addr, align 8
  call void @_ZN4node14MemoryRetainerC2Ev(ptr noundef nonnull align 8 dereferenceable(8) %this1) #3
  store ptr getelementptr inbounds ({ [10 x ptr] }, ptr @_ZTVN4node6crypto15AESCipherConfigE, i32 0, i32 0, i32 2), ptr %this1, align 8
  %mode = getelementptr inbounds %"struct.node::crypto::AESCipherConfig", ptr %this1, i32 0, i32 1
  %0 = load ptr, ptr %other.addr, align 8
  %mode2 = getelementptr inbounds %"struct.node::crypto::AESCipherConfig", ptr %0, i32 0, i32 1
  %1 = load i32, ptr %mode2, align 8
  store i32 %1, ptr %mode, align 8
  %variant = getelementptr inbounds %"struct.node::crypto::AESCipherConfig", ptr %this1, i32 0, i32 2
  %2 = load ptr, ptr %other.addr, align 8
  %variant3 = getelementptr inbounds %"struct.node::crypto::AESCipherConfig", ptr %2, i32 0, i32 2
  %3 = load i32, ptr %variant3, align 4
  store i32 %3, ptr %variant, align 4
  %cipher = getelementptr inbounds %"struct.node::crypto::AESCipherConfig", ptr %this1, i32 0, i32 3
  %4 = load ptr, ptr %other.addr, align 8
  %cipher4 = getelementptr inbounds %"struct.node::crypto::AESCipherConfig", ptr %4, i32 0, i32 3
  %5 = load ptr, ptr %cipher4, align 8
  store ptr %5, ptr %cipher, align 8
  %length = getelementptr inbounds %"struct.node::crypto::AESCipherConfig", ptr %this1, i32 0, i32 4
  %6 = load ptr, ptr %other.addr, align 8
  %length5 = getelementptr inbounds %"struct.node::crypto::AESCipherConfig", ptr %6, i32 0, i32 4
  %7 = load i64, ptr %length5, align 8
  store i64 %7, ptr %length, align 8
  %iv = getelementptr inbounds %"struct.node::crypto::AESCipherConfig", ptr %this1, i32 0, i32 5
  %8 = load ptr, ptr %other.addr, align 8
  %iv6 = getelementptr inbounds %"struct.node::crypto::AESCipherConfig", ptr %8, i32 0, i32 5
  call void @_ZN4node6crypto10ByteSourceC1EOS1_(ptr noundef nonnull align 8 dereferenceable(24) %iv, ptr noundef nonnull align 8 dereferenceable(24) %iv6) #3
  %additional_data = getelementptr inbounds %"struct.node::crypto::AESCipherConfig", ptr %this1, i32 0, i32 6
  %9 = load ptr, ptr %other.addr, align 8
  %additional_data7 = getelementptr inbounds %"struct.node::crypto::AESCipherConfig", ptr %9, i32 0, i32 6
  call void @_ZN4node6crypto10ByteSourceC1EOS1_(ptr noundef nonnull align 8 dereferenceable(24) %additional_data, ptr noundef nonnull align 8 dereferenceable(24) %additional_data7) #3
  %tag = getelementptr inbounds %"struct.node::crypto::AESCipherConfig", ptr %this1, i32 0, i32 7
  %10 = load ptr, ptr %other.addr, align 8
  %tag8 = getelementptr inbounds %"struct.node::crypto::AESCipherConfig", ptr %10, i32 0, i32 7
  call void @_ZN4node6crypto10ByteSourceC1EOS1_(ptr noundef nonnull align 8 dereferenceable(24) %tag, ptr noundef nonnull align 8 dereferenceable(24) %tag8) #3
  ret void
}