; Function Attrs: mustprogress nounwind uwtable
define dso_local void @_ZN4node6crypto15AESCipherConfigC2EOS1_(ptr noundef nonnull align 8 dereferenceable(104) %this, ptr noundef nonnull align 8 dereferenceable(104) %other) unnamed_addr #3 align 2 {
entry:
  store ptr getelementptr inbounds ({ [10 x ptr] }, ptr @_ZTVN4node6crypto15AESCipherConfigE, i64 0, i32 0, i64 2), ptr %this, align 8
  %mode = getelementptr inbounds i8, ptr %this, i64 8
  %mode2 = getelementptr inbounds i8, ptr %other, i64 8
  %0 = load i32, ptr %mode2, align 8
  store i32 %0, ptr %mode, align 8
  %variant = getelementptr inbounds i8, ptr %this, i64 12
  %variant3 = getelementptr inbounds i8, ptr %other, i64 12
  %1 = load i32, ptr %variant3, align 4
  store i32 %1, ptr %variant, align 4
  %cipher = getelementptr inbounds i8, ptr %this, i64 16
  %cipher4 = getelementptr inbounds i8, ptr %other, i64 16
  %2 = load ptr, ptr %cipher4, align 8
  store ptr %2, ptr %cipher, align 8
  %length = getelementptr inbounds i8, ptr %this, i64 24
  %length5 = getelementptr inbounds i8, ptr %other, i64 24
  %3 = load i64, ptr %length5, align 8
  store i64 %3, ptr %length, align 8
  %iv = getelementptr inbounds i8, ptr %this, i64 32
  %iv6 = getelementptr inbounds i8, ptr %other, i64 32
  tail call void @_ZN4node6crypto10ByteSourceC1EOS1_(ptr noundef nonnull align 8 dereferenceable(24) %iv, ptr noundef nonnull align 8 dereferenceable(24) %iv6) #16
  %additional_data = getelementptr inbounds i8, ptr %this, i64 56
  %additional_data7 = getelementptr inbounds i8, ptr %other, i64 56
  tail call void @_ZN4node6crypto10ByteSourceC1EOS1_(ptr noundef nonnull align 8 dereferenceable(24) %additional_data, ptr noundef nonnull align 8 dereferenceable(24) %additional_data7) #16
  %tag = getelementptr inbounds i8, ptr %this, i64 80
  %tag8 = getelementptr inbounds i8, ptr %other, i64 80
  tail call void @_ZN4node6crypto10ByteSourceC1EOS1_(ptr noundef nonnull align 8 dereferenceable(24) %tag, ptr noundef nonnull align 8 dereferenceable(24) %tag8) #16
  ret void
}